; Function Attrs: mustprogress uwtable
define hidden void @_Z18reportUnknownErrorRK13SourceCodePos(ptr nocapture noundef nonnull readonly align 8 dereferenceable(20) %0) local_unnamed_addr #3 personality ptr @__gxx_personality_v0 {
  %2 = alloca %"class.std::__cxx11::basic_string", align 8
  %3 = alloca %"class.std::allocator", align 1
  call void @_ZNSaIcEC1Ev(ptr noundef nonnull align 1 dereferenceable(1) %3) #7
  invoke void @_ZNSt7__cxx1112basic_stringIcSt11char_traitsIcESaIcEEC1EPKcRKS3_(ptr noundef nonnull align 8 dereferenceable(32) %2, ptr noundef nonnull @.str.2, ptr noundef nonnull align 1 dereferenceable(1) %3)
          to label %4 unwind label %6

4:                                                ; preds = %1
  invoke fastcc void @_ZN12_GLOBAL__N_111reportErrorERK13SourceCodePosRKNSt7__cxx1112basic_stringIcSt11char_traitsIcESaIcEEE(ptr noundef nonnull align 8 dereferenceable(20) %0, ptr noundef nonnull align 8 dereferenceable(32) %2)
          to label %5 unwind label %8

5:                                                ; preds = %4
  call void @_ZNSt7__cxx1112basic_stringIcSt11char_traitsIcESaIcEED1Ev(ptr noundef nonnull align 8 dereferenceable(32) %2) #7
  call void @_ZNSaIcED1Ev(ptr noundef nonnull align 1 dereferenceable(1) %3) #7
  ret void

6:                                                ; preds = %1
  %7 = landingpad { ptr, i32 }
          cleanup
  br label %10

8:                                                ; preds = %4
  %9 = landingpad { ptr, i32 }
          cleanup
  call void @_ZNSt7__cxx1112basic_stringIcSt11char_traitsIcESaIcEED1Ev(ptr noundef nonnull align 8 dereferenceable(32) %2) #7
  br label %10

10:                                               ; preds = %8, %6
  %.pn = phi { ptr, i32 } [ %9, %8 ], [ %7, %6 ]
  call void @_ZNSaIcED1Ev(ptr noundef nonnull align 1 dereferenceable(1) %3) #7
  resume { ptr, i32 } %.pn
}